target datalayout = "e-m:e-p270:32:32-p271:32:32-p272:64:64-i64:64-i128:128-f80:128-n8:16:32:64-S128"
target triple = "x86_64-pc-linux-gnu"

%"class.rocksdb::MemTableListVersion" = type { %"class.std::__cxx11::list", %"class.std::__cxx11::list", i32, i64, i32, ptr, i64 }
%"class.std::__cxx11::list" = type { %"class.std::__cxx11::_List_base" }
%"class.std::__cxx11::_List_base" = type { %"struct.std::__cxx11::_List_base<rocksdb::ReadOnlyMemTable *, std::allocator<rocksdb::ReadOnlyMemTable *>>::_List_impl" }
%"struct.std::__cxx11::_List_base<rocksdb::ReadOnlyMemTable *, std::allocator<rocksdb::ReadOnlyMemTable *>>::_List_impl" = type { %"struct.std::__detail::_List_node_header" }
%"struct.std::__detail::_List_node_header" = type { %"struct.std::__detail::_List_node_base", i64 }
%"struct.std::__detail::_List_node_base" = type { ptr, ptr }
%"class.rocksdb::MemTableList" = type { %"struct.std::atomic", %"struct.std::atomic", i32, ptr, i32, i8, i8, i64, %"struct.std::atomic.47", %"struct.std::atomic", i64 }
%"struct.std::atomic.47" = type { %"struct.std::__atomic_base.48" }
%"struct.std::__atomic_base.48" = type { i64 }
%"struct.std::atomic" = type { %"struct.std::__atomic_base" }
%"struct.std::__atomic_base" = type { i8 }

@_ZN7rocksdb19MemTableListVersionC1EPmRKS0_ = unnamed_addr alias void (ptr, ptr, ptr), ptr @_ZN7rocksdb19MemTableListVersionC2EPmRKS0_

; Function Attrs: mustprogress nounwind uwtable
define void @_ZN7rocksdb19MemTableListVersion3RefEv(ptr noundef nonnull align 8 dereferenceable(88) %0) #3 align 2 {
  %2 = alloca ptr, align 8
  store ptr %0, ptr %2, align 8, !tbaa !48
  %3 = load ptr, ptr %2, align 8
  %4 = getelementptr inbounds nuw %"class.rocksdb::MemTableListVersion", ptr %3, i32 0, i32 4
  %5 = load i32, ptr %4, align 8, !tbaa !132
  %6 = add nsw i32 %5, 1
  store i32 %6, ptr %4, align 8, !tbaa !132
  ret void
}

; Function Attrs: mustprogress nounwind uwtable
define linkonce_odr void @_ZN7rocksdb19MemTableListVersion5SetIDEm(ptr noundef nonnull align 8 dereferenceable(88) %0, i64 noundef %1) #3 comdat align 2 {
  %3 = alloca ptr, align 8
  %4 = alloca i64, align 8
  store ptr %0, ptr %3, align 8, !tbaa !48
  store i64 %1, ptr %4, align 8, !tbaa !4
  %5 = load ptr, ptr %3, align 8
  %6 = load i64, ptr %4, align 8, !tbaa !4
  %7 = getelementptr inbounds nuw %"class.rocksdb::MemTableListVersion", ptr %5, i32 0, i32 6
  store i64 %6, ptr %7, align 8, !tbaa !133
  ret void
}

; Function Attrs: mustprogress uwtable
define void @_ZN7rocksdb12MemTableList17InstallNewVersionEv(ptr noundef nonnull align 8 dereferenceable(56) %0) #5 align 2 personality ptr @__gxx_personality_v0 {
  %2 = alloca ptr, align 8
  %3 = alloca ptr, align 8
  %4 = alloca ptr, align 8
  %5 = alloca i32, align 4
  store ptr %0, ptr %2, align 8, !tbaa !141
  %6 = load ptr, ptr %2, align 8
  %7 = getelementptr inbounds nuw %"class.rocksdb::MemTableList", ptr %6, i32 0, i32 3
  %8 = load ptr, ptr %7, align 8, !tbaa !143
  %9 = getelementptr inbounds nuw %"class.rocksdb::MemTableListVersion", ptr %8, i32 0, i32 4
  %10 = load i32, ptr %9, align 8, !tbaa !132
  %11 = icmp eq i32 %10, 1
  br i1 %11, label %12, label %13

12:                                               ; preds = %1
  br label %33

13:                                               ; preds = %1
  call void @llvm.lifetime.start.p0(i64 8, ptr %3) #4
  %14 = getelementptr inbounds nuw %"class.rocksdb::MemTableList", ptr %6, i32 0, i32 3
  %15 = load ptr, ptr %14, align 8, !tbaa !143
  store ptr %15, ptr %3, align 8, !tbaa !48
  %16 = call noalias noundef nonnull ptr @_Znwm(i64 noundef 88) #22
  %17 = getelementptr inbounds nuw %"class.rocksdb::MemTableList", ptr %6, i32 0, i32 7
  %18 = load ptr, ptr %3, align 8, !tbaa !48
  invoke void @_ZN7rocksdb19MemTableListVersionC1EPmRKS0_(ptr noundef nonnull align 8 dereferenceable(88) %16, ptr noundef %17, ptr noundef nonnull align 8 dereferenceable(88) %18)
          to label %19 unwind label %29

19:                                               ; preds = %13
  %20 = getelementptr inbounds nuw %"class.rocksdb::MemTableList", ptr %6, i32 0, i32 3
  store ptr %16, ptr %20, align 8, !tbaa !143
  %21 = getelementptr inbounds nuw %"class.rocksdb::MemTableList", ptr %6, i32 0, i32 3
  %22 = load ptr, ptr %21, align 8, !tbaa !143
  %23 = getelementptr inbounds nuw %"class.rocksdb::MemTableList", ptr %6, i32 0, i32 10
  %24 = load i64, ptr %23, align 8, !tbaa !395
  %25 = add i64 %24, 1
  store i64 %25, ptr %23, align 8, !tbaa !395
  call void @_ZN7rocksdb19MemTableListVersion5SetIDEm(ptr noundef nonnull align 8 dereferenceable(88) %22, i64 noundef %25)
  %26 = getelementptr inbounds nuw %"class.rocksdb::MemTableList", ptr %6, i32 0, i32 3
  %27 = load ptr, ptr %26, align 8, !tbaa !143
  call void @_ZN7rocksdb19MemTableListVersion3RefEv(ptr noundef nonnull align 8 dereferenceable(88) %27)
  %28 = load ptr, ptr %3, align 8, !tbaa !48
  call void @_ZN7rocksdb19MemTableListVersion5UnrefEPNS_10autovectorIPNS_16ReadOnlyMemTableELm8EEE(ptr noundef nonnull align 8 dereferenceable(88) %28, ptr noundef null)
  call void @llvm.lifetime.end.p0(i64 8, ptr %3) #4
  br label %33

29:                                               ; preds = %13
  %30 = landingpad { ptr, i32 }
          cleanup
  %31 = extractvalue { ptr, i32 } %30, 0
  store ptr %31, ptr %4, align 8
  %32 = extractvalue { ptr, i32 } %30, 1
  store i32 %32, ptr %5, align 4
  call void @_ZdlPvm(ptr noundef %16, i64 noundef 88) #21
  call void @llvm.lifetime.end.p0(i64 8, ptr %3) #4
  br label %34

33:                                               ; preds = %19, %12
  ret void

34:                                               ; preds = %29
  %35 = load ptr, ptr %4, align 8
  %36 = load i32, ptr %5, align 4
  %37 = insertvalue { ptr, i32 } poison, ptr %35, 0
  %38 = insertvalue { ptr, i32 } %37, i32 %36, 1
  resume { ptr, i32 } %38
}