; Function Attrs: mustprogress uwtable
define void @_ZN7rocksdb12MemTableList17InstallNewVersionEv(ptr noundef nonnull align 8 dereferenceable(56) %0) local_unnamed_addr #4 align 2 personality ptr @__gxx_personality_v0 {
  %2 = getelementptr inbounds nuw i8, ptr %0, i64 8
  %3 = load ptr, ptr %2, align 8, !tbaa !108
  %4 = getelementptr inbounds nuw i8, ptr %3, i64 64
  %5 = load i32, ptr %4, align 8, !tbaa !102
  %6 = icmp eq i32 %5, 1
  br i1 %6, label %20, label %7

7:                                                ; preds = %1
  %8 = tail call noalias noundef nonnull dereferenceable(88) ptr @_Znwm(i64 noundef 88) #26
  %9 = getelementptr inbounds nuw i8, ptr %0, i64 24
  invoke void @_ZN7rocksdb19MemTableListVersionC1EPmRKS0_(ptr noundef nonnull align 8 dereferenceable(88) %8, ptr noundef nonnull %9, ptr noundef nonnull align 8 dereferenceable(88) %3)
          to label %10 unwind label %18

10:                                               ; preds = %7
  store ptr %8, ptr %2, align 8, !tbaa !108
  %11 = getelementptr inbounds nuw i8, ptr %0, i64 48
  %12 = load i64, ptr %11, align 8, !tbaa !351
  %13 = add i64 %12, 1
  store i64 %13, ptr %11, align 8, !tbaa !351
  %14 = getelementptr inbounds nuw i8, ptr %8, i64 80
  store i64 %13, ptr %14, align 8, !tbaa !103
  %15 = getelementptr inbounds nuw i8, ptr %8, i64 64
  %16 = load i32, ptr %15, align 8, !tbaa !102
  %17 = add nsw i32 %16, 1
  store i32 %17, ptr %15, align 8, !tbaa !102
  tail call void @_ZN7rocksdb19MemTableListVersion5UnrefEPNS_10autovectorIPNS_16ReadOnlyMemTableELm8EEE(ptr noundef nonnull align 8 dereferenceable(88) %3, ptr noundef null)
  br label %20

18:                                               ; preds = %7
  %19 = landingpad { ptr, i32 }
          cleanup
  tail call void @_ZdlPvm(ptr noundef nonnull %8, i64 noundef 88) #25
  resume { ptr, i32 } %19

20:                                               ; preds = %1, %10
  ret void
}